; Function Attrs: mustprogress uwtable
define noundef i32 @_ZNK7testing8UnitTest17failed_test_countEv(ptr noundef nonnull readonly align 8 captures(none) dereferenceable(72) %0) local_unnamed_addr #4 align 2 {
  %2 = getelementptr inbounds nuw i8, ptr %0, i64 64
  %3 = load ptr, ptr %2, align 8, !tbaa !42
  %4 = getelementptr inbounds nuw i8, ptr %3, i64 184
  %5 = getelementptr inbounds nuw i8, ptr %3, i64 192
  %6 = load ptr, ptr %5, align 8, !tbaa !243
  %7 = load ptr, ptr %4, align 8, !tbaa !244
  %.not15.i.i = icmp eq ptr %6, %7
  br i1 %.not15.i.i, label %_ZNK7testing8internal12UnitTestImpl17failed_test_countEv.exit, label %.lr.ph.split.us.i.preheader.i

.lr.ph.split.us.i.preheader.i:                    ; preds = %1
  %8 = ptrtoint ptr %6 to i64
  %9 = ptrtoint ptr %7 to i64
  %10 = sub i64 %8, %9
  %11 = ashr exact i64 %10, 3
  %umax.i = tail call i64 @llvm.umax.i64(i64 %11, i64 1)
  br label %.lr.ph.split.us.i.i

.lr.ph.split.us.i.i:                              ; preds = %_ZNK7testing8TestCase17failed_test_countEv.exit.i, %.lr.ph.split.us.i.preheader.i
  %.014.us.i.i = phi i64 [ %39, %_ZNK7testing8TestCase17failed_test_countEv.exit.i ], [ 0, %.lr.ph.split.us.i.preheader.i ]
  %.01213.us.i.i = phi i32 [ %38, %_ZNK7testing8TestCase17failed_test_countEv.exit.i ], [ 0, %.lr.ph.split.us.i.preheader.i ]
  %12 = getelementptr inbounds nuw ptr, ptr %7, i64 %.014.us.i.i
  %13 = load ptr, ptr %12, align 8, !tbaa !225
  %14 = getelementptr inbounds nuw i8, ptr %13, i64 48
  %15 = load ptr, ptr %14, align 8, !tbaa !234
  %16 = getelementptr inbounds nuw i8, ptr %13, i64 56
  %17 = load ptr, ptr %16, align 8, !tbaa !234
  %.not7.i.i.i = icmp eq ptr %15, %17
  br i1 %.not7.i.i.i, label %_ZNK7testing8TestCase17failed_test_countEv.exit.i, label %.lr.ph.i.i.i

.lr.ph.i.i.i:                                     ; preds = %.lr.ph.split.us.i.i, %_ZN7testing8TestCase10TestFailedEPKNS_8TestInfoE.exit.i.i
  %.09.i.i.i = phi i32 [ %spec.select.i.i.i, %_ZN7testing8TestCase10TestFailedEPKNS_8TestInfoE.exit.i.i ], [ 0, %.lr.ph.split.us.i.i ]
  %.sroa.04.08.i.i.i = phi ptr [ %37, %_ZN7testing8TestCase10TestFailedEPKNS_8TestInfoE.exit.i.i ], [ %15, %.lr.ph.split.us.i.i ]
  %18 = load ptr, ptr %.sroa.04.08.i.i.i, align 8, !tbaa !235
  %19 = getelementptr inbounds nuw i8, ptr %18, i64 128
  %20 = load i8, ptr %19, align 8, !tbaa !236, !range !68, !noundef !69
  %21 = trunc nuw i8 %20 to i1
  br i1 %21, label %22, label %_ZN7testing8TestCase10TestFailedEPKNS_8TestInfoE.exit.i.i

22:                                               ; preds = %.lr.ph.i.i.i
  %23 = getelementptr inbounds nuw i8, ptr %18, i64 200
  %24 = getelementptr inbounds nuw i8, ptr %18, i64 208
  %25 = load ptr, ptr %24, align 8, !tbaa !191
  %26 = load ptr, ptr %23, align 8, !tbaa !199
  %27 = ptrtoint ptr %25 to i64
  %28 = ptrtoint ptr %26 to i64
  %29 = sub i64 %27, %28
  %30 = sdiv exact i64 %29, 112
  %31 = trunc i64 %30 to i32
  %.not711.i.i.i.i = icmp sgt i32 %31, 0
  br i1 %.not711.i.i.i.i, label %.lr.ph.preheader.i.i.i.i, label %_ZN7testing8TestCase10TestFailedEPKNS_8TestInfoE.exit.i.i

.lr.ph.preheader.i.i.i.i:                         ; preds = %22
  %wide.trip.count.i.i.i.i = and i64 %30, 2147483647
  br label %.lr.ph.i.i.i.i

32:                                               ; preds = %_ZNK7testing10TestResult17GetTestPartResultEi.exit.i.i.i.i
  %indvars.iv.next.i.i.i.i = add nuw nsw i64 %indvars.iv.i.i.i.i, 1
  %exitcond17.not.i.i.i.i = icmp eq i64 %indvars.iv.next.i.i.i.i, %wide.trip.count.i.i.i.i
  br i1 %exitcond17.not.i.i.i.i, label %_ZN7testing8TestCase10TestFailedEPKNS_8TestInfoE.exit.i.i, label %.lr.ph.i.i.i.i, !llvm.loop !240

.lr.ph.i.i.i.i:                                   ; preds = %32, %.lr.ph.preheader.i.i.i.i
  %indvars.iv.i.i.i.i = phi i64 [ 0, %.lr.ph.preheader.i.i.i.i ], [ %indvars.iv.next.i.i.i.i, %32 ]
  %exitcond.not.i.i.i.i = icmp eq i64 %indvars.iv.i.i.i.i, %30
  br i1 %exitcond.not.i.i.i.i, label %33, label %_ZNK7testing10TestResult17GetTestPartResultEi.exit.i.i.i.i

33:                                               ; preds = %.lr.ph.i.i.i.i
  tail call void (ptr, ...) @_ZSt24__throw_out_of_range_fmtPKcz(ptr noundef nonnull @.str.490, i64 noundef %30, i64 noundef %30) #58
  unreachable

_ZNK7testing10TestResult17GetTestPartResultEi.exit.i.i.i.i: ; preds = %.lr.ph.i.i.i.i
  %34 = getelementptr inbounds nuw %"class.testing::TestPartResult", ptr %26, i64 %indvars.iv.i.i.i.i
  %35 = load i32, ptr %34, align 8, !tbaa !208
  %.not.not.i.not.i.i.i = icmp eq i32 %35, 0
  br i1 %.not.not.i.not.i.i.i, label %32, label %_ZN7testing8TestCase10TestFailedEPKNS_8TestInfoE.exit.i.i

_ZN7testing8TestCase10TestFailedEPKNS_8TestInfoE.exit.i.i: ; preds = %_ZNK7testing10TestResult17GetTestPartResultEi.exit.i.i.i.i, %32, %22, %.lr.ph.i.i.i
  %36 = phi i32 [ 0, %.lr.ph.i.i.i ], [ 0, %22 ], [ 0, %32 ], [ 1, %_ZNK7testing10TestResult17GetTestPartResultEi.exit.i.i.i.i ]
  %spec.select.i.i.i = add nuw nsw i32 %36, %.09.i.i.i
  %37 = getelementptr inbounds nuw i8, ptr %.sroa.04.08.i.i.i, i64 8
  %.not.i.i.i = icmp eq ptr %37, %17
  br i1 %.not.i.i.i, label %_ZNK7testing8TestCase17failed_test_countEv.exit.i, label %.lr.ph.i.i.i, !llvm.loop !241

_ZNK7testing8TestCase17failed_test_countEv.exit.i: ; preds = %_ZN7testing8TestCase10TestFailedEPKNS_8TestInfoE.exit.i.i, %.lr.ph.split.us.i.i
  %.0.lcssa.i.i.i = phi i32 [ 0, %.lr.ph.split.us.i.i ], [ %spec.select.i.i.i, %_ZN7testing8TestCase10TestFailedEPKNS_8TestInfoE.exit.i.i ]
  %38 = add nsw i32 %.0.lcssa.i.i.i, %.01213.us.i.i
  %39 = add nuw i64 %.014.us.i.i, 1
  %exitcond.not.i = icmp eq i64 %39, %umax.i
  br i1 %exitcond.not.i, label %_ZNK7testing8internal12UnitTestImpl17failed_test_countEv.exit, label %.lr.ph.split.us.i.i, !llvm.loop !245

_ZNK7testing8internal12UnitTestImpl17failed_test_countEv.exit: ; preds = %_ZNK7testing8TestCase17failed_test_countEv.exit.i, %1
  %.012.lcssa.i.i = phi i32 [ 0, %1 ], [ %38, %_ZNK7testing8TestCase17failed_test_countEv.exit.i ]
  ret i32 %.012.lcssa.i.i
}